; Function Attrs: mustprogress uwtable
define hidden void @_ZN4lean15get_undef_paramERKNS_5levelERKNS_8list_refINS_4nameEEE(ptr dead_on_unwind noalias writable sret(%"class.lean::optional.4") align 8 initializes((0, 1)) %0, ptr noundef nonnull align 8 dereferenceable(8) %1, ptr noundef nonnull align 8 dereferenceable(8) %2) local_unnamed_addr #0 personality ptr @__gxx_personality_v0 {
  %4 = alloca %"class.lean::for_each_level_fn", align 8
  store i8 0, ptr %0, align 8, !tbaa !74
  call void @llvm.lifetime.start.p0(i64 32, ptr nonnull %4) #19
  %5 = getelementptr inbounds nuw i8, ptr %4, i64 16
  %6 = getelementptr inbounds nuw i8, ptr %4, i64 24
  store ptr %0, ptr %4, align 8, !tbaa !76
  %.sroa.5.0..sroa_idx = getelementptr inbounds nuw i8, ptr %4, i64 8
  store ptr %2, ptr %.sroa.5.0..sroa_idx, align 8, !tbaa !78
  store ptr @"_ZNSt17_Function_handlerIFbRKN4lean5levelEEZNS0_15get_undef_paramES3_RKNS0_8list_refINS0_4nameEEEE3$_0E9_M_invokeERKSt9_Any_dataS3_", ptr %6, align 8, !tbaa !46
  store ptr @"_ZNSt17_Function_handlerIFbRKN4lean5levelEEZNS0_15get_undef_paramES3_RKNS0_8list_refINS0_4nameEEEE3$_0E10_M_managerERSt9_Any_dataRKSC_St18_Manager_operation", ptr %5, align 8, !tbaa !44
  invoke void @_ZN4lean17for_each_level_fn5applyERKNS_5levelE(ptr noundef nonnull align 8 dereferenceable(32) %4, ptr noundef nonnull align 8 dereferenceable(8) %1)
          to label %_ZN4lean17for_each_level_fnclERKNS_5levelE.exit.i unwind label %13

_ZN4lean17for_each_level_fnclERKNS_5levelE.exit.i: ; preds = %3
  %7 = load ptr, ptr %5, align 8, !tbaa !44
  %.not.i.i.i = icmp eq ptr %7, null
  br i1 %.not.i.i.i, label %21, label %8

8:                                                ; preds = %_ZN4lean17for_each_level_fnclERKNS_5levelE.exit.i
  %9 = invoke noundef zeroext i1 %7(ptr noundef nonnull align 8 dereferenceable(32) %4, ptr noundef nonnull align 8 dereferenceable(32) %4, i32 noundef 3)
          to label %21 unwind label %10

10:                                               ; preds = %8
  %11 = landingpad { ptr, i32 }
          catch ptr null
  %12 = extractvalue { ptr, i32 } %11, 0
  call void @__clang_call_terminate(ptr %12) #21
  unreachable

13:                                               ; preds = %3
  %14 = landingpad { ptr, i32 }
          cleanup
  %15 = load ptr, ptr %5, align 8, !tbaa !44
  %.not.i.i3.i = icmp eq ptr %15, null
  br i1 %.not.i.i3.i, label %_ZN4lean17for_each_level_fnD2Ev.exit4.i, label %16

16:                                               ; preds = %13
  %17 = invoke noundef zeroext i1 %15(ptr noundef nonnull align 8 dereferenceable(32) %4, ptr noundef nonnull align 8 dereferenceable(32) %4, i32 noundef 3)
          to label %_ZN4lean17for_each_level_fnD2Ev.exit4.i unwind label %18

18:                                               ; preds = %16
  %19 = landingpad { ptr, i32 }
          catch ptr null
  %20 = extractvalue { ptr, i32 } %19, 0
  call void @__clang_call_terminate(ptr %20) #21
  unreachable

_ZN4lean17for_each_level_fnD2Ev.exit4.i:          ; preds = %16, %13
  call void @llvm.lifetime.end.p0(i64 32, ptr nonnull %4) #19
  call void @_ZN4lean8optionalINS_4nameEED2Ev(ptr noundef nonnull align 8 dereferenceable(16) %0) #19
  resume { ptr, i32 } %14

21:                                               ; preds = %8, %_ZN4lean17for_each_level_fnclERKNS_5levelE.exit.i
  call void @llvm.lifetime.end.p0(i64 32, ptr nonnull %4) #19
  ret void
}